target datalayout = "e-m:e-p270:32:32-p271:32:32-p272:64:64-i64:64-i128:128-f80:128-n8:16:32:64-S128"
target triple = "x86_64-pc-linux-gnu"

%struct.dump_call_arg = type { i64, ptr, i32 }

; Function Attrs: nounwind sspstrong uwtable
define internal void @w_objivar(i64 noundef %0, ptr noundef %1) #0 {
  %3 = alloca i64, align 8
  %4 = alloca ptr, align 8
  %5 = alloca i64, align 8
  store i64 %0, ptr %3, align 8, !tbaa !7
  store ptr %1, ptr %4, align 8, !tbaa !103
  call void @llvm.lifetime.start.p0(i64 8, ptr %5) #23
  store i64 0, ptr %5, align 8, !tbaa !7
  %6 = load i64, ptr %3, align 8, !tbaa !7
  %7 = ptrtoint ptr %5 to i64
  call void @rb_ivar_foreach(i64 noundef %6, ptr noundef @obj_count_ivars, i64 noundef %7)
  %8 = load i64, ptr %5, align 8, !tbaa !7
  %9 = load ptr, ptr %4, align 8, !tbaa !103
  %10 = getelementptr inbounds nuw %struct.dump_call_arg, ptr %9, i32 0, i32 1
  %11 = load ptr, ptr %10, align 8, !tbaa !80
  call void @w_long(i64 noundef %8, ptr noundef %11)
  %12 = load i64, ptr %3, align 8, !tbaa !7
  %13 = load i64, ptr %5, align 8, !tbaa !7
  %14 = load ptr, ptr %4, align 8, !tbaa !103
  call void @w_ivar_each(i64 noundef %12, i64 noundef %13, ptr noundef %14)
  call void @llvm.lifetime.end.p0(i64 8, ptr %5) #23
  ret void
}