; Function Attrs: nounwind sspstrong uwtable
define internal fastcc void @w_objivar(i64 noundef %0, ptr noundef nonnull %1) unnamed_addr #0 {
  %3 = alloca i64, align 8
  call void @llvm.lifetime.start.p0(i64 8, ptr nonnull %3) #22
  store i64 0, ptr %3, align 8, !tbaa !7
  %4 = ptrtoint ptr %3 to i64
  call void @rb_ivar_foreach(i64 noundef %0, ptr noundef nonnull @obj_count_ivars, i64 noundef %4) #22
  %5 = load i64, ptr %3, align 8, !tbaa !7
  %6 = getelementptr inbounds nuw i8, ptr %1, i64 8
  %7 = load ptr, ptr %6, align 8, !tbaa !69
  call fastcc void @w_long(i64 noundef %5, ptr noundef %7)
  %8 = load i64, ptr %3, align 8, !tbaa !7
  call fastcc void @w_ivar_each(i64 noundef %0, i64 noundef %8, ptr noundef %1)
  call void @llvm.lifetime.end.p0(i64 8, ptr nonnull %3) #22
  ret void
}